target datalayout = "e-m:e-p270:32:32-p271:32:32-p272:64:64-i64:64-i128:128-f80:128-n8:16:32:64-S128"
target triple = "x86_64-pc-linux-gnu"

%"class.std::__shared_count" = type { ptr }
%"class.duckdb::shared_ptr.206" = type { %"class.std::shared_ptr.207" }
%"class.std::shared_ptr.207" = type { %"class.std::__shared_ptr.208" }
%"class.std::__shared_ptr.208" = type { ptr, %"class.std::__shared_count" }
%"class.duckdb::shared_ptr.336" = type { %"class.std::shared_ptr.337" }
%"class.std::shared_ptr.337" = type { %"class.std::__shared_ptr.338" }
%"class.std::__shared_ptr.338" = type { ptr, %"class.std::__shared_count" }

; Function Attrs: mustprogress nounwind uwtable
define linkonce_odr void @_ZNSt14__shared_countILN9__gnu_cxx12_Lock_policyE2EE7_M_swapERS2_(ptr noundef nonnull align 8 dereferenceable(8) %0, ptr noundef nonnull align 8 dereferenceable(8) %1) #7 comdat align 2 {
  %3 = alloca ptr, align 8
  %4 = alloca ptr, align 8
  %5 = alloca ptr, align 8
  store ptr %0, ptr %3, align 8, !tbaa !563
  store ptr %1, ptr %4, align 8, !tbaa !563
  %6 = load ptr, ptr %3, align 8
  call void @llvm.lifetime.start.p0(i64 8, ptr %5) #3
  %7 = load ptr, ptr %4, align 8, !tbaa !563
  %8 = getelementptr inbounds nuw %"class.std::__shared_count", ptr %7, i32 0, i32 0
  %9 = load ptr, ptr %8, align 8, !tbaa !565
  store ptr %9, ptr %5, align 8, !tbaa !566
  %10 = getelementptr inbounds nuw %"class.std::__shared_count", ptr %6, i32 0, i32 0
  %11 = load ptr, ptr %10, align 8, !tbaa !565
  %12 = load ptr, ptr %4, align 8, !tbaa !563
  %13 = getelementptr inbounds nuw %"class.std::__shared_count", ptr %12, i32 0, i32 0
  store ptr %11, ptr %13, align 8, !tbaa !565
  %14 = load ptr, ptr %5, align 8, !tbaa !566
  %15 = getelementptr inbounds nuw %"class.std::__shared_count", ptr %6, i32 0, i32 0
  store ptr %14, ptr %15, align 8, !tbaa !565
  call void @llvm.lifetime.end.p0(i64 8, ptr %5) #3
  ret void
}

; Function Attrs: mustprogress nounwind uwtable
define linkonce_odr void @_ZNSt14__shared_countILN9__gnu_cxx12_Lock_policyE2EEC2Ev(ptr noundef nonnull align 8 dereferenceable(8) %0) unnamed_addr #7 comdat align 2 {
  %2 = alloca ptr, align 8
  store ptr %0, ptr %2, align 8, !tbaa !563
  %3 = load ptr, ptr %2, align 8
  %4 = getelementptr inbounds nuw %"class.std::__shared_count", ptr %3, i32 0, i32 0
  store ptr null, ptr %4, align 8, !tbaa !565
  ret void
}

; Function Attrs: mustprogress nounwind uwtable
define linkonce_odr void @_ZNSt12__shared_ptrIN6duckdb12VectorBufferELN9__gnu_cxx12_Lock_policyE2EEC2INS0_25ParquetStringVectorBufferEvEEOS_IT_LS3_2EE(ptr noundef nonnull align 8 dereferenceable(16) %0, ptr noundef nonnull align 8 dereferenceable(16) %1) unnamed_addr #7 comdat align 2 {
  %3 = alloca ptr, align 8
  %4 = alloca ptr, align 8
  store ptr %0, ptr %3, align 8, !tbaa !575
  store ptr %1, ptr %4, align 8, !tbaa !577
  %5 = load ptr, ptr %3, align 8
  %6 = getelementptr inbounds nuw %"class.std::__shared_ptr.208", ptr %5, i32 0, i32 0
  %7 = load ptr, ptr %4, align 8, !tbaa !577
  %8 = getelementptr inbounds nuw %"class.std::__shared_ptr.338", ptr %7, i32 0, i32 0
  %9 = load ptr, ptr %8, align 8, !tbaa !1126
  store ptr %9, ptr %6, align 8, !tbaa !1214
  %10 = getelementptr inbounds nuw %"class.std::__shared_ptr.208", ptr %5, i32 0, i32 1
  call void @_ZNSt14__shared_countILN9__gnu_cxx12_Lock_policyE2EEC2Ev(ptr noundef nonnull align 8 dereferenceable(8) %10) #3
  %11 = getelementptr inbounds nuw %"class.std::__shared_ptr.208", ptr %5, i32 0, i32 1
  %12 = load ptr, ptr %4, align 8, !tbaa !577
  %13 = getelementptr inbounds nuw %"class.std::__shared_ptr.338", ptr %12, i32 0, i32 1
  call void @_ZNSt14__shared_countILN9__gnu_cxx12_Lock_policyE2EE7_M_swapERS2_(ptr noundef nonnull align 8 dereferenceable(8) %11, ptr noundef nonnull align 8 dereferenceable(8) %13) #3
  %14 = load ptr, ptr %4, align 8, !tbaa !577
  %15 = getelementptr inbounds nuw %"class.std::__shared_ptr.338", ptr %14, i32 0, i32 0
  store ptr null, ptr %15, align 8, !tbaa !1126
  ret void
}

; Function Attrs: mustprogress nounwind uwtable
define linkonce_odr void @_ZNSt10shared_ptrIN6duckdb12VectorBufferEEC2INS0_25ParquetStringVectorBufferEvEEOS_IT_E(ptr noundef nonnull align 8 dereferenceable(16) %0, ptr noundef nonnull align 8 dereferenceable(16) %1) unnamed_addr #7 comdat align 2 {
  %3 = alloca ptr, align 8
  %4 = alloca ptr, align 8
  store ptr %0, ptr %3, align 8, !tbaa !1212
  store ptr %1, ptr %4, align 8, !tbaa !1124
  %5 = load ptr, ptr %3, align 8
  %6 = load ptr, ptr %4, align 8, !tbaa !1124
  call void @_ZNSt12__shared_ptrIN6duckdb12VectorBufferELN9__gnu_cxx12_Lock_policyE2EEC2INS0_25ParquetStringVectorBufferEvEEOS_IT_LS3_2EE(ptr noundef nonnull align 8 dereferenceable(16) %5, ptr noundef nonnull align 8 dereferenceable(16) %6) #3
  ret void
}

; Function Attrs: mustprogress nounwind uwtable
define linkonce_odr void @_ZN6duckdb10shared_ptrINS_12VectorBufferELb1EEC2INS_25ParquetStringVectorBufferETnNSt9enable_ifIXsr17compatible_with_tIT_S1_EE5valueEiE4typeELi0EEEONS0_IS6_Lb1EEE(ptr noundef nonnull align 8 dereferenceable(16) %0, ptr noundef nonnull align 8 dereferenceable(16) %1) unnamed_addr #7 comdat align 2 {
  %3 = alloca ptr, align 8
  %4 = alloca ptr, align 8
  store ptr %0, ptr %3, align 8, !tbaa !365
  store ptr %1, ptr %4, align 8, !tbaa !367
  %5 = load ptr, ptr %3, align 8
  %6 = getelementptr inbounds nuw %"class.duckdb::shared_ptr.206", ptr %5, i32 0, i32 0
  %7 = load ptr, ptr %4, align 8, !tbaa !367
  %8 = getelementptr inbounds nuw %"class.duckdb::shared_ptr.336", ptr %7, i32 0, i32 0
  call void @_ZNSt10shared_ptrIN6duckdb12VectorBufferEEC2INS0_25ParquetStringVectorBufferEvEEOS_IT_E(ptr noundef nonnull align 8 dereferenceable(16) %6, ptr noundef nonnull align 8 dereferenceable(16) %8) #3
  ret void
}

; Function Attrs: mustprogress uwtable
define void @_ZN6duckdb18StringColumnReader14ReferenceBlockERNS_6VectorERNS_10shared_ptrINS_16ResizeableBufferELb1EEE(ptr noundef nonnull align 8 dereferenceable(104) %0, ptr noundef nonnull align 8 dereferenceable(16) %1) #4 align 2 personality ptr @__gxx_personality_v0 {
  %3 = alloca ptr, align 8
  %4 = alloca ptr, align 8
  %5 = alloca %"class.duckdb::shared_ptr.206", align 8
  %6 = alloca %"class.duckdb::shared_ptr.336", align 8
  %7 = alloca ptr, align 8
  %8 = alloca i32, align 4
  store ptr %0, ptr %3, align 8, !tbaa !211
  store ptr %1, ptr %4, align 8, !tbaa !363
  %9 = load ptr, ptr %3, align 8, !tbaa !211
  call void @llvm.lifetime.start.p0(i64 16, ptr %6) #3
  %10 = load ptr, ptr %4, align 8, !tbaa !363
  call void @_ZN6duckdb11make_bufferINS_25ParquetStringVectorBufferEJRNS_10shared_ptrINS_16ResizeableBufferELb1EEEEEENS2_IT_Lb1EEEDpOT0_(ptr dead_on_unwind writable sret(%"class.duckdb::shared_ptr.336") align 8 %6, ptr noundef nonnull align 8 dereferenceable(16) %10)
  call void @_ZN6duckdb10shared_ptrINS_12VectorBufferELb1EEC2INS_25ParquetStringVectorBufferETnNSt9enable_ifIXsr17compatible_with_tIT_S1_EE5valueEiE4typeELi0EEEONS0_IS6_Lb1EEE(ptr noundef nonnull align 8 dereferenceable(16) %5, ptr noundef nonnull align 8 dereferenceable(16) %6) #3
  invoke void @_ZN6duckdb12StringVector9AddBufferERNS_6VectorENS_10shared_ptrINS_12VectorBufferELb1EEE(ptr noundef nonnull align 8 dereferenceable(104) %9, ptr noundef %5)
          to label %11 unwind label %12

11:                                               ; preds = %2
  call void @_ZN6duckdb10shared_ptrINS_12VectorBufferELb1EED2Ev(ptr noundef nonnull align 8 dereferenceable(16) %5) #3
  call void @_ZN6duckdb10shared_ptrINS_25ParquetStringVectorBufferELb1EED2Ev(ptr noundef nonnull align 8 dereferenceable(16) %6) #3
  call void @llvm.lifetime.end.p0(i64 16, ptr %6) #3
  ret void

12:                                               ; preds = %2
  %13 = landingpad { ptr, i32 }
          cleanup
  %14 = extractvalue { ptr, i32 } %13, 0
  store ptr %14, ptr %7, align 8
  %15 = extractvalue { ptr, i32 } %13, 1
  store i32 %15, ptr %8, align 4
  call void @_ZN6duckdb10shared_ptrINS_12VectorBufferELb1EED2Ev(ptr noundef nonnull align 8 dereferenceable(16) %5) #3
  call void @_ZN6duckdb10shared_ptrINS_25ParquetStringVectorBufferELb1EED2Ev(ptr noundef nonnull align 8 dereferenceable(16) %6) #3
  call void @llvm.lifetime.end.p0(i64 16, ptr %6) #3
  br label %16

16:                                               ; preds = %12
  %17 = load ptr, ptr %7, align 8
  %18 = load i32, ptr %8, align 4
  %19 = insertvalue { ptr, i32 } poison, ptr %17, 0
  %20 = insertvalue { ptr, i32 } %19, i32 %18, 1
  resume { ptr, i32 } %20
}