; Function Attrs: mustprogress uwtable
define void @_ZN6duckdb18StringColumnReader14ReferenceBlockERNS_6VectorERNS_10shared_ptrINS_16ResizeableBufferELb1EEE(ptr noundef nonnull align 8 dereferenceable(104) %0, ptr noundef nonnull align 8 dereferenceable(16) %1) local_unnamed_addr #3 align 2 personality ptr @__gxx_personality_v0 {
  %3 = alloca %"class.duckdb::shared_ptr.206", align 8
  %4 = alloca %"class.duckdb::shared_ptr.336", align 8
  call void @llvm.lifetime.start.p0(i64 16, ptr nonnull %4) #25
  call void @_ZN6duckdb11make_bufferINS_25ParquetStringVectorBufferEJRNS_10shared_ptrINS_16ResizeableBufferELb1EEEEEENS2_IT_Lb1EEEDpOT0_(ptr dead_on_unwind nonnull writable sret(%"class.duckdb::shared_ptr.336") align 8 %4, ptr noundef nonnull align 8 dereferenceable(16) %1)
  %5 = load ptr, ptr %4, align 8, !tbaa !353
  store ptr %5, ptr %3, align 8, !tbaa !356
  %6 = getelementptr inbounds nuw i8, ptr %3, i64 8
  %7 = getelementptr inbounds nuw i8, ptr %4, i64 8
  %8 = load ptr, ptr %7, align 8, !tbaa !320
  store ptr null, ptr %7, align 8, !tbaa !320
  store ptr %8, ptr %6, align 8, !tbaa !320
  store ptr null, ptr %4, align 8, !tbaa !353
  invoke void @_ZN6duckdb12StringVector9AddBufferERNS_6VectorENS_10shared_ptrINS_12VectorBufferELb1EEE(ptr noundef nonnull align 8 dereferenceable(104) %0, ptr noundef nonnull %3)
          to label %9 unwind label %54

9:                                                ; preds = %2
  %10 = load ptr, ptr %6, align 8, !tbaa !320
  %.not.i.i.i = icmp eq ptr %10, null
  br i1 %.not.i.i.i, label %_ZN6duckdb10shared_ptrINS_12VectorBufferELb1EED2Ev.exit, label %11

11:                                               ; preds = %9
  %12 = getelementptr inbounds nuw i8, ptr %10, i64 8
  %13 = load atomic i64, ptr %12 acquire, align 8
  %14 = icmp eq i64 %13, 4294967297
  %15 = trunc i64 %13 to i32
  br i1 %14, label %16, label %24

16:                                               ; preds = %11
  store i32 0, ptr %12, align 8, !tbaa !321
  %17 = getelementptr inbounds nuw i8, ptr %10, i64 12
  store i32 0, ptr %17, align 4, !tbaa !323
  %18 = load ptr, ptr %10, align 8, !tbaa !3
  %19 = getelementptr inbounds nuw i8, ptr %18, i64 16
  %20 = load ptr, ptr %19, align 8
  call void %20(ptr noundef nonnull align 8 dereferenceable(16) %10) #25
  %21 = load ptr, ptr %10, align 8, !tbaa !3
  %22 = getelementptr inbounds nuw i8, ptr %21, i64 24
  %23 = load ptr, ptr %22, align 8
  call void %23(ptr noundef nonnull align 8 dereferenceable(16) %10) #25
  br label %_ZN6duckdb10shared_ptrINS_12VectorBufferELb1EED2Ev.exit

24:                                               ; preds = %11
  %25 = load i8, ptr @__libc_single_threaded, align 1, !tbaa !191
  %.not.i.i.i.i = icmp eq i8 %25, 0
  br i1 %.not.i.i.i.i, label %28, label %26

26:                                               ; preds = %24
  %27 = add nsw i32 %15, -1
  store i32 %27, ptr %12, align 4, !tbaa !220
  br label %_ZN9__gnu_cxx27__exchange_and_add_dispatchEPii.exit.i.i.i.i

28:                                               ; preds = %24
  %29 = atomicrmw volatile add ptr %12, i32 -1 acq_rel, align 4
  br label %_ZN9__gnu_cxx27__exchange_and_add_dispatchEPii.exit.i.i.i.i

_ZN9__gnu_cxx27__exchange_and_add_dispatchEPii.exit.i.i.i.i: ; preds = %28, %26
  %.0.i.i.i.i.i = phi i32 [ %15, %26 ], [ %29, %28 ]
  %30 = icmp eq i32 %.0.i.i.i.i.i, 1
  br i1 %30, label %31, label %_ZN6duckdb10shared_ptrINS_12VectorBufferELb1EED2Ev.exit, !prof !184

31:                                               ; preds = %_ZN9__gnu_cxx27__exchange_and_add_dispatchEPii.exit.i.i.i.i
  call void @_ZNSt16_Sp_counted_baseILN9__gnu_cxx12_Lock_policyE2EE24_M_release_last_use_coldEv(ptr noundef nonnull align 8 dereferenceable(16) %10) #25
  br label %_ZN6duckdb10shared_ptrINS_12VectorBufferELb1EED2Ev.exit

_ZN6duckdb10shared_ptrINS_12VectorBufferELb1EED2Ev.exit: ; preds = %9, %16, %_ZN9__gnu_cxx27__exchange_and_add_dispatchEPii.exit.i.i.i.i, %31
  %32 = load ptr, ptr %7, align 8, !tbaa !320
  %.not.i.i.i3 = icmp eq ptr %32, null
  br i1 %.not.i.i.i3, label %_ZN6duckdb10shared_ptrINS_25ParquetStringVectorBufferELb1EED2Ev.exit, label %33

33:                                               ; preds = %_ZN6duckdb10shared_ptrINS_12VectorBufferELb1EED2Ev.exit
  %34 = getelementptr inbounds nuw i8, ptr %32, i64 8
  %35 = load atomic i64, ptr %34 acquire, align 8
  %36 = icmp eq i64 %35, 4294967297
  %37 = trunc i64 %35 to i32
  br i1 %36, label %38, label %46

38:                                               ; preds = %33
  store i32 0, ptr %34, align 8, !tbaa !321
  %39 = getelementptr inbounds nuw i8, ptr %32, i64 12
  store i32 0, ptr %39, align 4, !tbaa !323
  %40 = load ptr, ptr %32, align 8, !tbaa !3
  %41 = getelementptr inbounds nuw i8, ptr %40, i64 16
  %42 = load ptr, ptr %41, align 8
  call void %42(ptr noundef nonnull align 8 dereferenceable(16) %32) #25
  %43 = load ptr, ptr %32, align 8, !tbaa !3
  %44 = getelementptr inbounds nuw i8, ptr %43, i64 24
  %45 = load ptr, ptr %44, align 8
  call void %45(ptr noundef nonnull align 8 dereferenceable(16) %32) #25
  br label %_ZN6duckdb10shared_ptrINS_25ParquetStringVectorBufferELb1EED2Ev.exit

46:                                               ; preds = %33
  %47 = load i8, ptr @__libc_single_threaded, align 1, !tbaa !191
  %.not.i.i.i.i4 = icmp eq i8 %47, 0
  br i1 %.not.i.i.i.i4, label %50, label %48

48:                                               ; preds = %46
  %49 = add nsw i32 %37, -1
  store i32 %49, ptr %34, align 4, !tbaa !220
  br label %_ZN9__gnu_cxx27__exchange_and_add_dispatchEPii.exit.i.i.i.i5

50:                                               ; preds = %46
  %51 = atomicrmw volatile add ptr %34, i32 -1 acq_rel, align 4
  br label %_ZN9__gnu_cxx27__exchange_and_add_dispatchEPii.exit.i.i.i.i5

_ZN9__gnu_cxx27__exchange_and_add_dispatchEPii.exit.i.i.i.i5: ; preds = %50, %48
  %.0.i.i.i.i.i6 = phi i32 [ %37, %48 ], [ %51, %50 ]
  %52 = icmp eq i32 %.0.i.i.i.i.i6, 1
  br i1 %52, label %53, label %_ZN6duckdb10shared_ptrINS_25ParquetStringVectorBufferELb1EED2Ev.exit, !prof !184

53:                                               ; preds = %_ZN9__gnu_cxx27__exchange_and_add_dispatchEPii.exit.i.i.i.i5
  call void @_ZNSt16_Sp_counted_baseILN9__gnu_cxx12_Lock_policyE2EE24_M_release_last_use_coldEv(ptr noundef nonnull align 8 dereferenceable(16) %32) #25
  br label %_ZN6duckdb10shared_ptrINS_25ParquetStringVectorBufferELb1EED2Ev.exit

_ZN6duckdb10shared_ptrINS_25ParquetStringVectorBufferELb1EED2Ev.exit: ; preds = %_ZN6duckdb10shared_ptrINS_12VectorBufferELb1EED2Ev.exit, %38, %_ZN9__gnu_cxx27__exchange_and_add_dispatchEPii.exit.i.i.i.i5, %53
  call void @llvm.lifetime.end.p0(i64 16, ptr nonnull %4) #25
  ret void

54:                                               ; preds = %2
  %55 = landingpad { ptr, i32 }
          cleanup
  call void @_ZN6duckdb10shared_ptrINS_12VectorBufferELb1EED2Ev(ptr noundef nonnull align 8 dereferenceable(16) %3) #25
  call void @_ZN6duckdb10shared_ptrINS_25ParquetStringVectorBufferELb1EED2Ev(ptr noundef nonnull align 8 dereferenceable(16) %4) #25
  call void @llvm.lifetime.end.p0(i64 16, ptr nonnull %4) #25
  resume { ptr, i32 } %55
}